target datalayout = "e-m:e-p270:32:32-p271:32:32-p272:64:64-i64:64-i128:128-f80:128-n8:16:32:64-S128"
target triple = "x86_64-pc-linux-gnu"

%struct.H5P_genclass_t = type { ptr, ptr, i32, i64, i32, i32, i32, i8, i32, ptr, ptr, ptr, ptr, ptr, ptr, ptr }
%struct.H5P_genplist_t = type { ptr, i64, i64, i8, ptr, ptr }
%struct.H5P_genprop_t = type { ptr, i64, ptr, i32, i8, ptr, ptr, ptr, ptr, ptr, ptr, ptr, ptr, ptr }
%struct.H5P_plist_cmp_ud_t = type { ptr, i32 }

@H5P_init_g = external global i8, align 1
@H5_libterm_g = external global i8, align 1
@.str.7 = private unnamed_addr constant [100 x i8] c"generated/home/dtcxzyw/WorkSpace/Projects/compilers/llvm-opt-benchmark/bench/hdf5/hdf5/src/H5Pint.c\00", align 1
@H5E_PLIST_g = external global i64, align 8
@H5E_NOTFOUND_g = external global i64, align 8
@.str.48 = private unnamed_addr constant [23 x i8] c"property doesn't exist\00", align 1
@__func__.H5P__cmp_plist_cb = private unnamed_addr constant [18 x i8] c"H5P__cmp_plist_cb\00", align 1
@.str.95 = private unnamed_addr constant [36 x i8] c"can't lookup existence of property?\00", align 1

; Function Attrs: nounwind uwtable
define i32 @H5P_exist_plist(ptr noundef %0, ptr noundef %1) #0 {
  %3 = alloca i32, align 4
  %4 = alloca ptr, align 8
  %5 = alloca ptr, align 8
  %6 = alloca i32, align 4
  %7 = alloca ptr, align 8
  %8 = alloca i32, align 4
  store ptr %0, ptr %4, align 8, !tbaa !59
  store ptr %1, ptr %5, align 8, !tbaa !39
  call void @llvm.lifetime.start.p0(i64 4, ptr %6) #8
  store i32 -1, ptr %6, align 4, !tbaa !3
  %9 = load i8, ptr @H5P_init_g, align 1, !tbaa !7, !range !9, !noundef !10
  %10 = trunc i8 %9 to i1
  br i1 %10, label %15, label %11

11:                                               ; preds = %2
  %12 = load i8, ptr @H5_libterm_g, align 1, !tbaa !7, !range !9, !noundef !10
  %13 = trunc i8 %12 to i1
  %14 = xor i1 %13, true
  br label %15

15:                                               ; preds = %11, %2
  %16 = phi i1 [ true, %2 ], [ %14, %11 ]
  %17 = xor i1 %16, true
  %18 = xor i1 %17, true
  %19 = zext i1 %18 to i32
  %20 = sext i32 %19 to i64
  %21 = call i64 @llvm.expect.i64(i64 %20, i64 1)
  %22 = icmp ne i64 %21, 0
  br i1 %22, label %23, label %68

23:                                               ; preds = %15
  %24 = load ptr, ptr %4, align 8, !tbaa !59
  %25 = getelementptr inbounds nuw %struct.H5P_genplist_t, ptr %24, i32 0, i32 4
  %26 = load ptr, ptr %25, align 8, !tbaa !80
  %27 = load ptr, ptr %5, align 8, !tbaa !39
  %28 = call ptr @H5SL_search(ptr noundef %26, ptr noundef %27)
  %29 = icmp ne ptr %28, null
  br i1 %29, label %30, label %31

30:                                               ; preds = %23
  store i32 0, ptr %6, align 4, !tbaa !3
  br label %66

31:                                               ; preds = %23
  %32 = load ptr, ptr %4, align 8, !tbaa !59
  %33 = getelementptr inbounds nuw %struct.H5P_genplist_t, ptr %32, i32 0, i32 5
  %34 = load ptr, ptr %33, align 8, !tbaa !79
  %35 = load ptr, ptr %5, align 8, !tbaa !39
  %36 = call ptr @H5SL_search(ptr noundef %34, ptr noundef %35)
  %37 = icmp ne ptr %36, null
  br i1 %37, label %38, label %39

38:                                               ; preds = %31
  store i32 1, ptr %6, align 4, !tbaa !3
  br label %65

39:                                               ; preds = %31
  call void @llvm.lifetime.start.p0(i64 8, ptr %7) #8
  %40 = load ptr, ptr %4, align 8, !tbaa !59
  %41 = getelementptr inbounds nuw %struct.H5P_genplist_t, ptr %40, i32 0, i32 0
  %42 = load ptr, ptr %41, align 8, !tbaa !63
  store ptr %42, ptr %7, align 8, !tbaa !22
  br label %43

43:                                               ; preds = %57, %39
  %44 = load ptr, ptr %7, align 8, !tbaa !22
  %45 = icmp ne ptr %44, null
  br i1 %45, label %46, label %61

46:                                               ; preds = %43
  %47 = load ptr, ptr %7, align 8, !tbaa !22
  %48 = getelementptr inbounds nuw %struct.H5P_genclass_t, ptr %47, i32 0, i32 9
  %49 = load ptr, ptr %48, align 8, !tbaa !52
  %50 = load ptr, ptr %5, align 8, !tbaa !39
  %51 = call ptr @H5SL_search(ptr noundef %49, ptr noundef %50)
  %52 = icmp ne ptr %51, null
  br i1 %52, label %53, label %57

53:                                               ; preds = %46
  br label %54

54:                                               ; preds = %53
  store i32 1, ptr %6, align 4, !tbaa !3
  store i32 6, ptr %8, align 4
  br label %62

55:                                               ; No predecessors!
  br label %56

56:                                               ; preds = %55
  br label %57

57:                                               ; preds = %56, %46
  %58 = load ptr, ptr %7, align 8, !tbaa !22
  %59 = getelementptr inbounds nuw %struct.H5P_genclass_t, ptr %58, i32 0, i32 0
  %60 = load ptr, ptr %59, align 8, !tbaa !41
  store ptr %60, ptr %7, align 8, !tbaa !22
  br label %43, !llvm.loop !108

61:                                               ; preds = %43
  store i32 0, ptr %6, align 4, !tbaa !3
  store i32 0, ptr %8, align 4
  br label %62

62:                                               ; preds = %54, %61
  call void @llvm.lifetime.end.p0(i64 8, ptr %7) #8
  %63 = load i32, ptr %8, align 4
  switch i32 %63, label %70 [
    i32 0, label %64
    i32 6, label %67
  ]

64:                                               ; preds = %62
  br label %65

65:                                               ; preds = %64, %38
  br label %66

66:                                               ; preds = %65, %30
  br label %67

67:                                               ; preds = %66, %62
  br label %68

68:                                               ; preds = %67, %15
  %69 = load i32, ptr %6, align 4, !tbaa !3
  store i32 %69, ptr %3, align 4
  store i32 1, ptr %8, align 4
  br label %70

70:                                               ; preds = %68, %62
  call void @llvm.lifetime.end.p0(i64 4, ptr %6) #8
  %71 = load i32, ptr %3, align 4
  ret i32 %71
}

; Function Attrs: nounwind uwtable
define internal i32 @H5P__cmp_plist_cb(ptr noundef %0, ptr noundef %1) #0 {
  %3 = alloca i32, align 4
  %4 = alloca ptr, align 8
  %5 = alloca ptr, align 8
  %6 = alloca ptr, align 8
  %7 = alloca i32, align 4
  %8 = alloca i32, align 4
  %9 = alloca i8, align 1
  %10 = alloca ptr, align 8
  %11 = alloca i32, align 4
  store ptr %0, ptr %4, align 8, !tbaa !68
  store ptr %1, ptr %5, align 8, !tbaa !40
  call void @llvm.lifetime.start.p0(i64 8, ptr %6) #8
  %12 = load ptr, ptr %5, align 8, !tbaa !40
  store ptr %12, ptr %6, align 8, !tbaa !40
  call void @llvm.lifetime.start.p0(i64 4, ptr %7) #8
  call void @llvm.lifetime.start.p0(i64 4, ptr %8) #8
  store i32 0, ptr %8, align 4, !tbaa !3
  call void @llvm.lifetime.start.p0(i64 1, ptr %9) #8
  store i8 0, ptr %9, align 1, !tbaa !7
  %13 = load i8, ptr @H5P_init_g, align 1, !tbaa !7, !range !9, !noundef !10
  %14 = trunc i8 %13 to i1
  br i1 %14, label %19, label %15

15:                                               ; preds = %2
  %16 = load i8, ptr @H5_libterm_g, align 1, !tbaa !7, !range !9, !noundef !10
  %17 = trunc i8 %16 to i1
  %18 = xor i1 %17, true
  br label %19

19:                                               ; preds = %15, %2
  %20 = phi i1 [ true, %2 ], [ %18, %15 ]
  %21 = xor i1 %20, true
  %22 = xor i1 %21, true
  %23 = zext i1 %22 to i32
  %24 = sext i32 %23 to i64
  %25 = call i64 @llvm.expect.i64(i64 %24, i64 1)
  %26 = icmp ne i64 %25, 0
  br i1 %26, label %27, label %109

27:                                               ; preds = %19
  %28 = load ptr, ptr %6, align 8, !tbaa !40
  %29 = getelementptr inbounds nuw %struct.H5P_plist_cmp_ud_t, ptr %28, i32 0, i32 0
  %30 = load ptr, ptr %29, align 8, !tbaa !117
  %31 = load ptr, ptr %4, align 8, !tbaa !68
  %32 = getelementptr inbounds nuw %struct.H5P_genprop_t, ptr %31, i32 0, i32 0
  %33 = load ptr, ptr %32, align 8, !tbaa !71
  %34 = call i32 @H5P_exist_plist(ptr noundef %30, ptr noundef %33)
  store i32 %34, ptr %7, align 4, !tbaa !3
  %35 = icmp slt i32 %34, 0
  br i1 %35, label %36, label %55

36:                                               ; preds = %27
  br label %37

37:                                               ; preds = %36
  br label %38

38:                                               ; preds = %37
  br label %39

39:                                               ; preds = %38
  %40 = load i64, ptr @H5E_PLIST_g, align 8, !tbaa !11
  %41 = load i64, ptr @H5E_NOTFOUND_g, align 8, !tbaa !11
  %42 = call i32 (ptr, ptr, i32, i64, i64, ptr, ...) @H5E_printf_stack(ptr noundef @.str.7, ptr noundef @__func__.H5P__cmp_plist_cb, i32 noundef 3951, i64 noundef %40, i64 noundef %41, ptr noundef @.str.95)
  br label %43

43:                                               ; preds = %39
  br label %44

44:                                               ; preds = %43
  store i8 1, ptr %9, align 1, !tbaa !7
  %45 = load i8, ptr %9, align 1, !tbaa !7, !range !9, !noundef !10
  %46 = trunc i8 %45 to i1
  %47 = zext i1 %46 to i8
  store i8 %47, ptr %9, align 1, !tbaa !7
  br label %48

48:                                               ; preds = %44
  br label %49

49:                                               ; preds = %48
  br label %50

50:                                               ; preds = %49
  store i32 -1, ptr %8, align 4, !tbaa !3
  br label %108

51:                                               ; No predecessors!
  br label %52

52:                                               ; preds = %51
  br label %53

53:                                               ; preds = %52
  br label %54

54:                                               ; preds = %53
  br label %55

55:                                               ; preds = %54, %27
  %56 = load i32, ptr %7, align 4, !tbaa !3
  %57 = icmp ne i32 %56, 0
  br i1 %57, label %58, label %101

58:                                               ; preds = %55
  call void @llvm.lifetime.start.p0(i64 8, ptr %10) #8
  %59 = load ptr, ptr %6, align 8, !tbaa !40
  %60 = getelementptr inbounds nuw %struct.H5P_plist_cmp_ud_t, ptr %59, i32 0, i32 0
  %61 = load ptr, ptr %60, align 8, !tbaa !117
  %62 = load ptr, ptr %4, align 8, !tbaa !68
  %63 = getelementptr inbounds nuw %struct.H5P_genprop_t, ptr %62, i32 0, i32 0
  %64 = load ptr, ptr %63, align 8, !tbaa !71
  %65 = call ptr @H5P__find_prop_plist(ptr noundef %61, ptr noundef %64)
  store ptr %65, ptr %10, align 8, !tbaa !68
  %66 = icmp eq ptr null, %65
  br i1 %66, label %67, label %86

67:                                               ; preds = %58
  br label %68

68:                                               ; preds = %67
  br label %69

69:                                               ; preds = %68
  br label %70

70:                                               ; preds = %69
  %71 = load i64, ptr @H5E_PLIST_g, align 8, !tbaa !11
  %72 = load i64, ptr @H5E_NOTFOUND_g, align 8, !tbaa !11
  %73 = call i32 (ptr, ptr, i32, i64, i64, ptr, ...) @H5E_printf_stack(ptr noundef @.str.7, ptr noundef @__func__.H5P__cmp_plist_cb, i32 noundef 3957, i64 noundef %71, i64 noundef %72, ptr noundef @.str.48)
  br label %74

74:                                               ; preds = %70
  br label %75

75:                                               ; preds = %74
  store i8 1, ptr %9, align 1, !tbaa !7
  %76 = load i8, ptr %9, align 1, !tbaa !7, !range !9, !noundef !10
  %77 = trunc i8 %76 to i1
  %78 = zext i1 %77 to i8
  store i8 %78, ptr %9, align 1, !tbaa !7
  br label %79

79:                                               ; preds = %75
  br label %80

80:                                               ; preds = %79
  br label %81

81:                                               ; preds = %80
  store i32 -1, ptr %8, align 4, !tbaa !3
  store i32 10, ptr %11, align 4
  br label %98

82:                                               ; No predecessors!
  br label %83

83:                                               ; preds = %82
  br label %84

84:                                               ; preds = %83
  br label %85

85:                                               ; preds = %84
  br label %86

86:                                               ; preds = %85, %58
  %87 = load ptr, ptr %4, align 8, !tbaa !68
  %88 = load ptr, ptr %10, align 8, !tbaa !68
  %89 = call i32 @H5P__cmp_prop(ptr noundef %87, ptr noundef %88)
  %90 = load ptr, ptr %6, align 8, !tbaa !40
  %91 = getelementptr inbounds nuw %struct.H5P_plist_cmp_ud_t, ptr %90, i32 0, i32 1
  store i32 %89, ptr %91, align 8, !tbaa !115
  %92 = icmp ne i32 %89, 0
  br i1 %92, label %93, label %97

93:                                               ; preds = %86
  br label %94

94:                                               ; preds = %93
  store i32 1, ptr %8, align 4, !tbaa !3
  store i32 10, ptr %11, align 4
  br label %98

95:                                               ; No predecessors!
  br label %96

96:                                               ; preds = %95
  br label %97

97:                                               ; preds = %96, %86
  store i32 0, ptr %11, align 4
  br label %98

98:                                               ; preds = %94, %81, %97
  call void @llvm.lifetime.end.p0(i64 8, ptr %10) #8
  %99 = load i32, ptr %11, align 4
  switch i32 %99, label %111 [
    i32 0, label %100
    i32 10, label %108
  ]

100:                                              ; preds = %98
  br label %107

101:                                              ; preds = %55
  %102 = load ptr, ptr %6, align 8, !tbaa !40
  %103 = getelementptr inbounds nuw %struct.H5P_plist_cmp_ud_t, ptr %102, i32 0, i32 1
  store i32 1, ptr %103, align 8, !tbaa !115
  br label %104

104:                                              ; preds = %101
  store i32 1, ptr %8, align 4, !tbaa !3
  br label %108

105:                                              ; No predecessors!
  br label %106

106:                                              ; preds = %105
  br label %107

107:                                              ; preds = %106, %100
  br label %108

108:                                              ; preds = %107, %98, %104, %50
  br label %109

109:                                              ; preds = %108, %19
  %110 = load i32, ptr %8, align 4, !tbaa !3
  store i32 %110, ptr %3, align 4
  store i32 1, ptr %11, align 4
  br label %111

111:                                              ; preds = %109, %98
  call void @llvm.lifetime.end.p0(i64 1, ptr %9) #8
  call void @llvm.lifetime.end.p0(i64 4, ptr %8) #8
  call void @llvm.lifetime.end.p0(i64 4, ptr %7) #8
  call void @llvm.lifetime.end.p0(i64 8, ptr %6) #8
  %112 = load i32, ptr %3, align 4
  ret i32 %112
}