; Function Attrs: nounwind uwtable
define internal range(i32 -1, 2) i32 @H5P__cmp_plist_cb(ptr noundef readonly captures(none) %0, ptr noundef captures(none) %1) #0 {
  %3 = load i8, ptr @H5P_init_g, align 1, !tbaa !3, !range !7, !noundef !8
  %4 = trunc nuw i8 %3 to i1
  %5 = load i8, ptr @H5_libterm_g, align 1, !range !7
  %6 = trunc nuw i8 %5 to i1
  %7 = xor i1 %6, true
  %8 = select i1 %4, i1 true, i1 %7
  br i1 %8, label %9, label %35, !prof !9

9:                                                ; preds = %2
  %10 = load ptr, ptr %1, align 8, !tbaa !104
  %11 = load ptr, ptr %0, align 8, !tbaa !61
  %12 = getelementptr inbounds nuw i8, ptr %10, i64 32
  %13 = load ptr, ptr %12, align 8, !tbaa !59
  %14 = tail call ptr @H5SL_search(ptr noundef %13, ptr noundef %11) #14
  %.not.i = icmp eq ptr %14, null
  br i1 %.not.i, label %15, label %.loopexit

15:                                               ; preds = %9
  %16 = getelementptr inbounds nuw i8, ptr %10, i64 40
  %17 = load ptr, ptr %16, align 8, !tbaa !58
  %18 = tail call ptr @H5SL_search(ptr noundef %17, ptr noundef %11) #14
  %.not14.i = icmp eq ptr %18, null
  br i1 %.not14.i, label %.preheader.i, label %H5P_exist_plist.exit

.preheader.i:                                     ; preds = %15, %19
  %.011.in.i = phi ptr [ %.011.i, %19 ], [ %10, %15 ]
  %.011.i = load ptr, ptr %.011.in.i, align 8, !tbaa !22
  %.not15.i = icmp eq ptr %.011.i, null
  br i1 %.not15.i, label %.loopexit, label %19

19:                                               ; preds = %.preheader.i
  %20 = getelementptr inbounds nuw i8, ptr %.011.i, i64 56
  %21 = load ptr, ptr %20, align 8, !tbaa !47
  %22 = tail call ptr @H5SL_search(ptr noundef %21, ptr noundef %11) #14
  %.not16.i = icmp eq ptr %22, null
  br i1 %.not16.i, label %.preheader.i, label %H5P_exist_plist.exit, !llvm.loop !98

H5P_exist_plist.exit:                             ; preds = %19, %15
  %23 = load ptr, ptr %1, align 8, !tbaa !104
  %24 = load ptr, ptr %0, align 8, !tbaa !61
  %25 = tail call ptr @H5P__find_prop_plist(ptr noundef %23, ptr noundef %24)
  %26 = icmp eq ptr %25, null
  br i1 %26, label %27, label %31

27:                                               ; preds = %H5P_exist_plist.exit
  %28 = load i64, ptr @H5E_PLIST_g, align 8, !tbaa !10
  %29 = load i64, ptr @H5E_NOTFOUND_g, align 8, !tbaa !10
  %30 = tail call i32 (ptr, ptr, i32, i64, i64, ptr, ...) @H5E_printf_stack(ptr noundef nonnull @.str.7, ptr noundef nonnull @__func__.H5P__cmp_plist_cb, i32 noundef 3957, i64 noundef %28, i64 noundef %29, ptr noundef nonnull @.str.48) #14
  br label %35

31:                                               ; preds = %H5P_exist_plist.exit
  %32 = tail call fastcc i32 @H5P__cmp_prop(ptr noundef nonnull %0, ptr noundef nonnull %25)
  %33 = getelementptr inbounds nuw i8, ptr %1, i64 8
  store i32 %32, ptr %33, align 8, !tbaa !101
  %.not18 = icmp ne i32 %32, 0
  %. = zext i1 %.not18 to i32
  br label %35

.loopexit:                                        ; preds = %.preheader.i, %9
  %34 = getelementptr inbounds nuw i8, ptr %1, i64 8
  store i32 1, ptr %34, align 8, !tbaa !101
  br label %35

35:                                               ; preds = %27, %31, %2, %.loopexit
  %.014 = phi i32 [ 1, %.loopexit ], [ 0, %2 ], [ -1, %27 ], [ %., %31 ]
  ret i32 %.014
}